target datalayout = "e-m:e-p270:32:32-p271:32:32-p272:64:64-i64:64-i128:128-f80:128-n8:16:32:64-S128"
target triple = "x86_64-pc-linux-gnu"

%struct._wmem_strbuf_t = type { ptr, ptr, i64, i64 }

; Function Attrs: alwaysinline nounwind
define internal ptr @memcpy.inline(ptr noalias %0, ptr noalias %1, i64 %2) #3 {
  %4 = alloca ptr, align 8
  %5 = alloca ptr, align 8
  %6 = alloca i64, align 8
  store ptr %0, ptr %4, align 8
  store ptr %1, ptr %5, align 8
  store i64 %2, ptr %6, align 8
  %7 = load ptr, ptr %4, align 8
  %8 = load ptr, ptr %5, align 8
  %9 = load i64, ptr %6, align 8
  %10 = load ptr, ptr %4, align 8
  %11 = call i64 @llvm.objectsize.i64.p0(ptr %10, i1 false, i1 true, i1 true)
  %12 = call ptr @__memcpy_chk(ptr noundef %7, ptr noundef %8, i64 noundef %9, i64 noundef %11) #15
  ret ptr %12
}

; Function Attrs: inlinehint null_pointer_is_valid sspstrong uwtable
define internal void @wmem_strbuf_grow(ptr noundef %0, i64 noundef %1) #5 {
  %3 = alloca ptr, align 8
  %4 = alloca i64, align 8
  %5 = alloca i64, align 8
  %6 = alloca i64, align 8
  %7 = alloca i32, align 4
  store ptr %0, ptr %3, align 8
  store i64 %1, ptr %4, align 8
  call void @llvm.lifetime.start.p0(i64 8, ptr %5) #15
  call void @llvm.lifetime.start.p0(i64 8, ptr %6) #15
  %8 = load ptr, ptr %3, align 8
  %9 = getelementptr inbounds nuw %struct._wmem_strbuf_t, ptr %8, i32 0, i32 3
  %10 = load i64, ptr %9, align 8
  %11 = load ptr, ptr %3, align 8
  %12 = getelementptr inbounds nuw %struct._wmem_strbuf_t, ptr %11, i32 0, i32 2
  %13 = load i64, ptr %12, align 8
  %14 = sub i64 %10, %13
  %15 = sub i64 %14, 1
  %16 = load i64, ptr %4, align 8
  %17 = icmp uge i64 %15, %16
  br i1 %17, label %18, label %19

18:                                               ; preds = %2
  store i32 1, ptr %7, align 4
  br label %57

19:                                               ; preds = %2
  %20 = load ptr, ptr %3, align 8
  %21 = getelementptr inbounds nuw %struct._wmem_strbuf_t, ptr %20, i32 0, i32 3
  %22 = load i64, ptr %21, align 8
  store i64 %22, ptr %5, align 8
  %23 = load ptr, ptr %3, align 8
  %24 = getelementptr inbounds nuw %struct._wmem_strbuf_t, ptr %23, i32 0, i32 2
  %25 = load i64, ptr %24, align 8
  %26 = load i64, ptr %4, align 8
  %27 = add i64 %25, %26
  store i64 %27, ptr %6, align 8
  br label %28

28:                                               ; preds = %33, %19
  %29 = load i64, ptr %5, align 8
  %30 = load i64, ptr %6, align 8
  %31 = add i64 %30, 1
  %32 = icmp ult i64 %29, %31
  br i1 %32, label %33, label %36

33:                                               ; preds = %28
  %34 = load i64, ptr %5, align 8
  %35 = mul i64 %34, 2
  store i64 %35, ptr %5, align 8
  br label %28, !llvm.loop !8

36:                                               ; preds = %28
  %37 = load i64, ptr %5, align 8
  %38 = load ptr, ptr %3, align 8
  %39 = getelementptr inbounds nuw %struct._wmem_strbuf_t, ptr %38, i32 0, i32 3
  %40 = load i64, ptr %39, align 8
  %41 = icmp eq i64 %37, %40
  br i1 %41, label %42, label %43

42:                                               ; preds = %36
  store i32 1, ptr %7, align 4
  br label %57

43:                                               ; preds = %36
  %44 = load ptr, ptr %3, align 8
  %45 = getelementptr inbounds nuw %struct._wmem_strbuf_t, ptr %44, i32 0, i32 0
  %46 = load ptr, ptr %45, align 8
  %47 = load ptr, ptr %3, align 8
  %48 = getelementptr inbounds nuw %struct._wmem_strbuf_t, ptr %47, i32 0, i32 1
  %49 = load ptr, ptr %48, align 8
  %50 = load i64, ptr %5, align 8
  %51 = call ptr @wmem_realloc(ptr noundef %46, ptr noundef %49, i64 noundef %50) #18
  %52 = load ptr, ptr %3, align 8
  %53 = getelementptr inbounds nuw %struct._wmem_strbuf_t, ptr %52, i32 0, i32 1
  store ptr %51, ptr %53, align 8
  %54 = load i64, ptr %5, align 8
  %55 = load ptr, ptr %3, align 8
  %56 = getelementptr inbounds nuw %struct._wmem_strbuf_t, ptr %55, i32 0, i32 3
  store i64 %54, ptr %56, align 8
  store i32 0, ptr %7, align 4
  br label %57

57:                                               ; preds = %43, %42, %18
  call void @llvm.lifetime.end.p0(i64 8, ptr %6) #15
  call void @llvm.lifetime.end.p0(i64 8, ptr %5) #15
  %58 = load i32, ptr %7, align 4
  switch i32 %58, label %60 [
    i32 0, label %59
    i32 1, label %59
  ]

59:                                               ; preds = %57, %57
  ret void

60:                                               ; preds = %57
  unreachable
}

; Function Attrs: null_pointer_is_valid sspstrong uwtable
define void @wmem_strbuf_append_len(ptr noundef %0, ptr noundef %1, i64 noundef %2) #0 {
  %4 = alloca ptr, align 8
  %5 = alloca ptr, align 8
  %6 = alloca i64, align 8
  store ptr %0, ptr %4, align 8
  store ptr %1, ptr %5, align 8
  store i64 %2, ptr %6, align 8
  %7 = load i64, ptr %6, align 8
  %8 = icmp ne i64 %7, 0
  br i1 %8, label %9, label %12

9:                                                ; preds = %3
  %10 = load ptr, ptr %5, align 8
  %11 = icmp ne ptr %10, null
  br i1 %11, label %13, label %12

12:                                               ; preds = %9, %3
  br label %38

13:                                               ; preds = %9
  %14 = load ptr, ptr %4, align 8
  %15 = load i64, ptr %6, align 8
  call void @wmem_strbuf_grow(ptr noundef %14, i64 noundef %15)
  %16 = load ptr, ptr %4, align 8
  %17 = getelementptr inbounds nuw %struct._wmem_strbuf_t, ptr %16, i32 0, i32 1
  %18 = load ptr, ptr %17, align 8
  %19 = load ptr, ptr %4, align 8
  %20 = getelementptr inbounds nuw %struct._wmem_strbuf_t, ptr %19, i32 0, i32 2
  %21 = load i64, ptr %20, align 8
  %22 = getelementptr i8, ptr %18, i64 %21
  %23 = load ptr, ptr %5, align 8
  %24 = load i64, ptr %6, align 8
  %25 = call ptr @memcpy.inline(ptr noundef %22, ptr noundef %23, i64 noundef %24) #15
  %26 = load i64, ptr %6, align 8
  %27 = load ptr, ptr %4, align 8
  %28 = getelementptr inbounds nuw %struct._wmem_strbuf_t, ptr %27, i32 0, i32 2
  %29 = load i64, ptr %28, align 8
  %30 = add i64 %29, %26
  store i64 %30, ptr %28, align 8
  %31 = load ptr, ptr %4, align 8
  %32 = getelementptr inbounds nuw %struct._wmem_strbuf_t, ptr %31, i32 0, i32 1
  %33 = load ptr, ptr %32, align 8
  %34 = load ptr, ptr %4, align 8
  %35 = getelementptr inbounds nuw %struct._wmem_strbuf_t, ptr %34, i32 0, i32 2
  %36 = load i64, ptr %35, align 8
  %37 = getelementptr i8, ptr %33, i64 %36
  store i8 0, ptr %37, align 1
  br label %38

38:                                               ; preds = %13, %12
  ret void
}