; Function Attrs: null_pointer_is_valid sspstrong uwtable
define void @wmem_strbuf_append_len(ptr noundef captures(none) %0, ptr noundef readonly captures(address_is_null) %1, i64 noundef %2) local_unnamed_addr #0 {
  %4 = icmp ne i64 %2, 0
  %5 = icmp ne ptr %1, null
  %or.cond = and i1 %5, %4
  br i1 %or.cond, label %6, label %34

6:                                                ; preds = %3
  %7 = getelementptr inbounds nuw i8, ptr %0, i64 24
  %8 = load i64, ptr %7, align 8
  %9 = getelementptr inbounds nuw i8, ptr %0, i64 16
  %10 = load i64, ptr %9, align 8
  %11 = xor i64 %10, -1
  %12 = add i64 %8, %11
  %.not.i = icmp ult i64 %12, %2
  br i1 %.not.i, label %13, label %wmem_strbuf_grow.exit

13:                                               ; preds = %6
  %14 = add i64 %2, 1
  %15 = add i64 %14, %10
  br label %16

16:                                               ; preds = %16, %13
  %.0.i = phi i64 [ %8, %13 ], [ %18, %16 ]
  %17 = icmp ult i64 %.0.i, %15
  %18 = shl i64 %.0.i, 1
  br i1 %17, label %16, label %19, !llvm.loop !20

19:                                               ; preds = %16
  %20 = icmp eq i64 %.0.i, %8
  br i1 %20, label %wmem_strbuf_grow.exit, label %21

21:                                               ; preds = %19
  %22 = load ptr, ptr %0, align 8
  %23 = getelementptr inbounds nuw i8, ptr %0, i64 8
  %24 = load ptr, ptr %23, align 8
  %25 = tail call ptr @wmem_realloc(ptr noundef %22, ptr noundef %24, i64 noundef %.0.i) #19
  store ptr %25, ptr %23, align 8
  store i64 %.0.i, ptr %7, align 8
  %.pre = load i64, ptr %9, align 8
  br label %wmem_strbuf_grow.exit

wmem_strbuf_grow.exit:                            ; preds = %6, %19, %21
  %26 = phi i64 [ %10, %6 ], [ %10, %19 ], [ %.pre, %21 ]
  %27 = getelementptr inbounds nuw i8, ptr %0, i64 8
  %28 = load ptr, ptr %27, align 8
  %29 = getelementptr i8, ptr %28, i64 %26
  tail call void @llvm.memcpy.p0.p0.i64(ptr noundef align 1 %29, ptr noundef nonnull align 1 %1, i64 noundef %2, i1 noundef false) #17
  %30 = load i64, ptr %9, align 8
  %31 = add i64 %30, %2
  store i64 %31, ptr %9, align 8
  %32 = load ptr, ptr %27, align 8
  %33 = getelementptr i8, ptr %32, i64 %31
  store i8 0, ptr %33, align 1
  br label %34

34:                                               ; preds = %3, %wmem_strbuf_grow.exit
  ret void
}